#include <math.h>
#include <stdio.h>
#include <stdlib.h>
#include <string.h>

main()
{
	int n,m,b,i=1,j,t,s,k;
	int a[300];
	scanf("%d\n",&n);
	scanf("%d",&b);
	a[0]=b;
	for(k=1;k<n;k++)
	{
		s=1;
		scanf("%d",&m);
		a[i]=m;
		for(j=0;j<i;j++)
		{
			if(a[i]==a[j])
				t=0;
			else t=1;
			s=s*t;
		}
		if(s!=0)
			i++;
	}
	for(j=0;j<i-1;j++)
	{
		printf("%d,",a[j]);
	}
	printf("%d",a[i-1]);
}