; ModuleID = '53/481.c'
source_filename = "53/481.c"
target datalayout = "e-m:e-p270:32:32-p271:32:32-p272:64:64-i64:64-f80:128-n8:16:32:64-S128"
target triple = "x86_64-pc-linux-gnu"

@.str = private unnamed_addr constant [4 x i8] c"%d\0A\00", align 1
@.str.1 = private unnamed_addr constant [3 x i8] c"%d\00", align 1
@.str.2 = private unnamed_addr constant [4 x i8] c"%d,\00", align 1

; Function Attrs: noinline nounwind uwtable
define dso_local i32 @main() #0 {
  %1 = alloca i32, align 4
  %2 = alloca i32, align 4
  %3 = alloca i32, align 4
  %4 = alloca i32, align 4
  %5 = alloca i32, align 4
  %6 = alloca i32, align 4
  %7 = alloca i32, align 4
  %8 = alloca i32, align 4
  %9 = alloca i32, align 4
  %10 = alloca [300 x i32], align 16
  store i32 0, i32* %1, align 4
  store i32 1, i32* %5, align 4
  %11 = call i32 (i8*, ...) @__isoc99_scanf(i8* getelementptr inbounds ([4 x i8], [4 x i8]* @.str, i64 0, i64 0), i32* %2)
  %12 = call i32 (i8*, ...) @__isoc99_scanf(i8* getelementptr inbounds ([3 x i8], [3 x i8]* @.str.1, i64 0, i64 0), i32* %4)
  %13 = load i32, i32* %4, align 4
  %14 = getelementptr inbounds [300 x i32], [300 x i32]* %10, i64 0, i64 0
  store i32 %13, i32* %14, align 16
  store i32 1, i32* %9, align 4
  br label %15

15:                                               ; preds = %55, %0
  %16 = load i32, i32* %9, align 4
  %17 = load i32, i32* %2, align 4
  %18 = icmp slt i32 %16, %17
  br i1 %18, label %19, label %58

19:                                               ; preds = %15
  store i32 1, i32* %8, align 4
  %20 = call i32 (i8*, ...) @__isoc99_scanf(i8* getelementptr inbounds ([3 x i8], [3 x i8]* @.str.1, i64 0, i64 0), i32* %3)
  %21 = load i32, i32* %3, align 4
  %22 = load i32, i32* %5, align 4
  %23 = sext i32 %22 to i64
  %24 = getelementptr inbounds [300 x i32], [300 x i32]* %10, i64 0, i64 %23
  store i32 %21, i32* %24, align 4
  store i32 0, i32* %6, align 4
  br label %25

25:                                               ; preds = %45, %19
  %26 = load i32, i32* %6, align 4
  %27 = load i32, i32* %5, align 4
  %28 = icmp slt i32 %26, %27
  br i1 %28, label %29, label %48

29:                                               ; preds = %25
  %30 = load i32, i32* %5, align 4
  %31 = sext i32 %30 to i64
  %32 = getelementptr inbounds [300 x i32], [300 x i32]* %10, i64 0, i64 %31
  %33 = load i32, i32* %32, align 4
  %34 = load i32, i32* %6, align 4
  %35 = sext i32 %34 to i64
  %36 = getelementptr inbounds [300 x i32], [300 x i32]* %10, i64 0, i64 %35
  %37 = load i32, i32* %36, align 4
  %38 = icmp eq i32 %33, %37
  br i1 %38, label %39, label %40

39:                                               ; preds = %29
  store i32 0, i32* %7, align 4
  br label %41

40:                                               ; preds = %29
  store i32 1, i32* %7, align 4
  br label %41

41:                                               ; preds = %40, %39
  %42 = load i32, i32* %8, align 4
  %43 = load i32, i32* %7, align 4
  %44 = mul nsw i32 %42, %43
  store i32 %44, i32* %8, align 4
  br label %45

45:                                               ; preds = %41
  %46 = load i32, i32* %6, align 4
  %47 = add nsw i32 %46, 1
  store i32 %47, i32* %6, align 4
  br label %25

48:                                               ; preds = %25
  %49 = load i32, i32* %8, align 4
  %50 = icmp ne i32 %49, 0
  br i1 %50, label %51, label %54

51:                                               ; preds = %48
  %52 = load i32, i32* %5, align 4
  %53 = add nsw i32 %52, 1
  store i32 %53, i32* %5, align 4
  br label %54

54:                                               ; preds = %51, %48
  br label %55

55:                                               ; preds = %54
  %56 = load i32, i32* %9, align 4
  %57 = add nsw i32 %56, 1
  store i32 %57, i32* %9, align 4
  br label %15

58:                                               ; preds = %15
  store i32 0, i32* %6, align 4
  br label %59

59:                                               ; preds = %70, %58
  %60 = load i32, i32* %6, align 4
  %61 = load i32, i32* %5, align 4
  %62 = sub nsw i32 %61, 1
  %63 = icmp slt i32 %60, %62
  br i1 %63, label %64, label %73

64:                                               ; preds = %59
  %65 = load i32, i32* %6, align 4
  %66 = sext i32 %65 to i64
  %67 = getelementptr inbounds [300 x i32], [300 x i32]* %10, i64 0, i64 %66
  %68 = load i32, i32* %67, align 4
  %69 = call i32 (i8*, ...) @printf(i8* getelementptr inbounds ([4 x i8], [4 x i8]* @.str.2, i64 0, i64 0), i32 %68)
  br label %70

70:                                               ; preds = %64
  %71 = load i32, i32* %6, align 4
  %72 = add nsw i32 %71, 1
  store i32 %72, i32* %6, align 4
  br label %59

73:                                               ; preds = %59
  %74 = load i32, i32* %5, align 4
  %75 = sub nsw i32 %74, 1
  %76 = sext i32 %75 to i64
  %77 = getelementptr inbounds [300 x i32], [300 x i32]* %10, i64 0, i64 %76
  %78 = load i32, i32* %77, align 4
  %79 = call i32 (i8*, ...) @printf(i8* getelementptr inbounds ([3 x i8], [3 x i8]* @.str.1, i64 0, i64 0), i32 %78)
  %80 = load i32, i32* %1, align 4
  ret i32 %80
}

declare dso_local i32 @__isoc99_scanf(i8*, ...) #1

declare dso_local i32 @printf(i8*, ...) #1


!llvm.module.flags = !{!0}
!llvm.ident = !{!1}

!0 = !{i32 1, !"wchar_size", i32 4}
!1 = !{!"clang version 10.0.0-4ubuntu1 "}
